; Function Attrs: nounwind uwtable
define hidden ptr @SDL_CreateTrayMenu_REAL(ptr noundef %0) local_unnamed_addr #0 {
  %2 = tail call zeroext i1 @SDL_ObjectValid(ptr noundef %0, i32 noundef 11) #10
  br i1 %2, label %5, label %3

3:                                                ; preds = %1
  %4 = tail call zeroext i1 (ptr, ...) @SDL_SetError_REAL(ptr noundef nonnull @.str.7, ptr noundef nonnull @.str.8) #10
  br label %23

5:                                                ; preds = %1
  %6 = tail call noalias dereferenceable_or_null(40) ptr @SDL_calloc_REAL(i64 noundef 1, i64 noundef 40) #11
  %7 = getelementptr inbounds nuw i8, ptr %0, i64 8
  store ptr %6, ptr %7, align 8
  %.not = icmp eq ptr %6, null
  br i1 %.not, label %23, label %8

8:                                                ; preds = %5
  %9 = load ptr, ptr @g_object_ref, align 8
  %10 = getelementptr inbounds nuw i8, ptr %0, i64 296
  %11 = load ptr, ptr %10, align 8
  %12 = tail call ptr %9(ptr noundef %11) #10
  %13 = load ptr, ptr %7, align 8
  store ptr %12, ptr %13, align 8
  %14 = load ptr, ptr %7, align 8
  %15 = getelementptr inbounds nuw i8, ptr %14, i64 24
  store ptr %0, ptr %15, align 8
  %16 = load ptr, ptr %7, align 8
  %17 = getelementptr inbounds nuw i8, ptr %16, i64 32
  store ptr null, ptr %17, align 8
  %18 = load ptr, ptr %7, align 8
  %19 = getelementptr inbounds nuw i8, ptr %18, i64 8
  store i32 0, ptr %19, align 8
  %20 = load ptr, ptr %7, align 8
  %21 = getelementptr inbounds nuw i8, ptr %20, i64 16
  store ptr null, ptr %21, align 8
  %22 = load ptr, ptr %7, align 8
  br label %23

23:                                               ; preds = %5, %8, %3
  %.0 = phi ptr [ %22, %8 ], [ null, %3 ], [ null, %5 ]
  ret ptr %.0
}